target datalayout = "e-m:e-p270:32:32-p271:32:32-p272:64:64-i64:64-i128:128-f80:128-n8:16:32:64-S128"
target triple = "x86_64-pc-linux-gnu"

%struct.rlimit = type { i64, i64 }

; Function Attrs: mustprogress nounwind uwtable
define linkonce_odr noundef i32 @_ZNSt14numeric_limitsIiE3maxEv() #3 comdat align 2 {
  ret i32 2147483647
}

; Function Attrs: mustprogress nounwind uwtable
define noundef i32 @_ZN7rocksdb4port15GetMaxOpenFilesEv() #3 {
  %1 = alloca i32, align 4
  %2 = alloca %struct.rlimit, align 8
  %3 = alloca i32, align 4
  call void @llvm.lifetime.start.p0(i64 16, ptr %2) #13
  %4 = call i32 @getrlimit(i32 noundef 7, ptr noundef %2) #13
  %5 = icmp ne i32 %4, 0
  br i1 %5, label %6, label %7

6:                                                ; preds = %0
  store i32 -1, ptr %1, align 4
  store i32 1, ptr %3, align 4
  br label %19

7:                                                ; preds = %0
  %8 = getelementptr inbounds nuw %struct.rlimit, ptr %2, i32 0, i32 0
  %9 = load i64, ptr %8, align 8, !tbaa !35
  %10 = call noundef i32 @_ZNSt14numeric_limitsIiE3maxEv() #13
  %11 = sext i32 %10 to i64
  %12 = icmp uge i64 %9, %11
  br i1 %12, label %13, label %15

13:                                               ; preds = %7
  %14 = call noundef i32 @_ZNSt14numeric_limitsIiE3maxEv() #13
  store i32 %14, ptr %1, align 4
  store i32 1, ptr %3, align 4
  br label %19

15:                                               ; preds = %7
  %16 = getelementptr inbounds nuw %struct.rlimit, ptr %2, i32 0, i32 0
  %17 = load i64, ptr %16, align 8, !tbaa !35
  %18 = trunc i64 %17 to i32
  store i32 %18, ptr %1, align 4
  store i32 1, ptr %3, align 4
  br label %19

19:                                               ; preds = %15, %13, %6
  call void @llvm.lifetime.end.p0(i64 16, ptr %2) #13
  %20 = load i32, ptr %1, align 4
  ret i32 %20
}