; Function Attrs: mustprogress nounwind uwtable
define noundef range(i32 -1, -2147483648) i32 @_ZN7rocksdb4port15GetMaxOpenFilesEv() local_unnamed_addr #3 {
  %1 = alloca %struct.rlimit, align 8
  call void @llvm.lifetime.start.p0(i64 16, ptr nonnull %1) #17
  %2 = call i32 @getrlimit(i32 noundef 7, ptr noundef nonnull %1) #17
  %.not = icmp eq i32 %2, 0
  %3 = load i64, ptr %1, align 8
  %spec.select2 = call i64 @llvm.umin.i64(i64 %3, i64 2147483647)
  %spec.select = trunc nuw nsw i64 %spec.select2 to i32
  %.0 = select i1 %.not, i32 %spec.select, i32 -1
  call void @llvm.lifetime.end.p0(i64 16, ptr nonnull %1) #17
  ret i32 %.0
}